target datalayout = "e-m:e-p270:32:32-p271:32:32-p272:64:64-i64:64-i128:128-f80:128-n8:16:32:64-S128"
target triple = "x86_64-pc-linux-gnu"

%struct._DwaCompressor = type { ptr, ptr, i32, i32, [2 x i32], [2 x i32], i32, i32, ptr, ptr, ptr, ptr, i64, ptr, i64, ptr, i64, ptr, i64, [3 x ptr], [3 x i64], ptr, ptr, i32, float }
%struct._exr_encode_pipeline = type { i64, ptr, i16, i16, i32, ptr, %struct.exr_chunk_info_t, ptr, ptr, i64, i64, ptr, i64, ptr, i64, i64, ptr, i64, i64, ptr, i64, ptr, i64, ptr, ptr, ptr, ptr, ptr, ptr, [5 x %struct.exr_coding_channel_info_t] }
%struct.exr_chunk_info_t = type { i32, i32, i32, i32, i32, i8, i8, i8, i8, i64, i64, i64, i64, i64 }
%struct.exr_coding_channel_info_t = type { ptr, i32, i32, i32, i32, i8, i8, i16, i16, i16, i32, i32, %union.anon }
%union.anon = type { ptr }

; Function Attrs: nounwind uwtable
define hidden i32 @internal_exr_apply_dwab(ptr noundef %0) #0 {
  %2 = alloca ptr, align 8
  %3 = alloca i32, align 4
  %4 = alloca %struct._DwaCompressor, align 8
  store ptr %0, ptr %2, align 8, !tbaa !3
  call void @llvm.lifetime.start.p0(i64 4, ptr %3) #14
  call void @llvm.lifetime.start.p0(i64 208, ptr %4) #14
  %5 = load ptr, ptr %2, align 8, !tbaa !3
  %6 = load ptr, ptr %2, align 8, !tbaa !3
  %7 = getelementptr inbounds nuw %struct._exr_encode_pipeline, ptr %6, i32 0, i32 19
  %8 = load ptr, ptr %2, align 8, !tbaa !3
  %9 = getelementptr inbounds nuw %struct._exr_encode_pipeline, ptr %8, i32 0, i32 20
  %10 = call i64 @internal_exr_huf_compress_spare_bytes()
  %11 = call i32 @internal_encode_alloc_buffer(ptr noundef %5, i32 noundef 3, ptr noundef %7, ptr noundef %9, i64 noundef %10)
  store i32 %11, ptr %3, align 4, !tbaa !8
  %12 = load i32, ptr %3, align 4, !tbaa !8
  %13 = icmp eq i32 %12, 0
  br i1 %13, label %14, label %22

14:                                               ; preds = %1
  %15 = load ptr, ptr %2, align 8, !tbaa !3
  %16 = call i32 @DwaCompressor_construct(ptr noundef %4, i32 noundef 0, ptr noundef %15, ptr noundef null)
  store i32 %16, ptr %3, align 4, !tbaa !8
  %17 = load i32, ptr %3, align 4, !tbaa !8
  %18 = icmp eq i32 %17, 0
  br i1 %18, label %19, label %21

19:                                               ; preds = %14
  %20 = call i32 @DwaCompressor_compress(ptr noundef %4)
  store i32 %20, ptr %3, align 4, !tbaa !8
  br label %21

21:                                               ; preds = %19, %14
  call void @DwaCompressor_destroy(ptr noundef %4)
  br label %22

22:                                               ; preds = %21, %1
  %23 = load i32, ptr %3, align 4, !tbaa !8
  call void @llvm.lifetime.end.p0(i64 208, ptr %4) #14
  call void @llvm.lifetime.end.p0(i64 4, ptr %3) #14
  ret i32 %23
}