; Function Attrs: nounwind uwtable
define hidden i32 @internal_exr_apply_dwab(ptr noundef %0) local_unnamed_addr #0 {
  %2 = alloca %struct._DwaCompressor, align 8
  call void @llvm.lifetime.start.p0(i64 208, ptr nonnull %2) #20
  %3 = getelementptr inbounds nuw i8, ptr %0, i64 192
  %4 = getelementptr inbounds nuw i8, ptr %0, i64 200
  %5 = tail call i64 @internal_exr_huf_compress_spare_bytes() #20
  %6 = tail call i32 @internal_encode_alloc_buffer(ptr noundef %0, i32 noundef 3, ptr noundef nonnull %3, ptr noundef nonnull %4, i64 noundef %5) #20
  %7 = icmp eq i32 %6, 0
  br i1 %7, label %8, label %14

8:                                                ; preds = %1
  %9 = call fastcc i32 @DwaCompressor_construct(ptr noundef %2, i32 noundef 0, ptr noundef nonnull %0, ptr noundef null)
  %10 = icmp eq i32 %9, 0
  br i1 %10, label %11, label %13

11:                                               ; preds = %8
  %12 = call fastcc i32 @DwaCompressor_compress(ptr noundef %2)
  br label %13

13:                                               ; preds = %11, %8
  %.1 = phi i32 [ %12, %11 ], [ %9, %8 ]
  call fastcc void @DwaCompressor_destroy(ptr noundef %2)
  br label %14

14:                                               ; preds = %13, %1
  %.0 = phi i32 [ %.1, %13 ], [ %6, %1 ]
  call void @llvm.lifetime.end.p0(i64 208, ptr nonnull %2) #20
  ret i32 %.0
}